target datalayout = "e-m:e-p270:32:32-p271:32:32-p272:64:64-i64:64-i128:128-f80:128-n8:16:32:64-S128"
target triple = "x86_64-pc-linux-gnu"

%struct.pg_checksum_context = type { i32, %union.pg_checksum_raw_context }
%union.pg_checksum_raw_context = type { ptr }

@.str = private unnamed_addr constant [29 x i8] c"could not open file \22%s\22: %m\00", align 1
@.str.11 = private unnamed_addr constant [39 x i8] c"could not update checksum of file \22%s\22\00", align 1
@.str.15 = private unnamed_addr constant [29 x i8] c"could not read file \22%s\22: %m\00", align 1

; Function Attrs: nounwind uwtable
define internal void @checksum_file(ptr noundef %0, ptr noundef %1) #0 {
  %3 = alloca ptr, align 8
  %4 = alloca ptr, align 8
  %5 = alloca i32, align 4
  %6 = alloca ptr, align 8
  %7 = alloca i32, align 4
  %8 = alloca i64, align 8
  %9 = alloca i32, align 4
  store ptr %0, ptr %3, align 8
  store ptr %1, ptr %4, align 8
  call void @llvm.lifetime.start.p0(i64 4, ptr %5) #7
  call void @llvm.lifetime.start.p0(i64 8, ptr %6) #7
  call void @llvm.lifetime.start.p0(i64 4, ptr %7) #7
  store i32 409600, ptr %7, align 4
  call void @llvm.lifetime.start.p0(i64 8, ptr %8) #7
  %10 = load ptr, ptr %4, align 8
  %11 = getelementptr inbounds nuw %struct.pg_checksum_context, ptr %10, i32 0, i32 0
  %12 = load i32, ptr %11, align 8
  %13 = icmp eq i32 %12, 0
  br i1 %13, label %14, label %15

14:                                               ; preds = %2
  store i32 1, ptr %9, align 4
  br label %55

15:                                               ; preds = %2
  %16 = load ptr, ptr %3, align 8
  %17 = call i32 (ptr, i32, ...) @open(ptr noundef %16, i32 noundef 0, i32 noundef 0)
  store i32 %17, ptr %5, align 4
  %18 = icmp slt i32 %17, 0
  br i1 %18, label %19, label %24

19:                                               ; preds = %15
  br label %20

20:                                               ; preds = %19
  %21 = load ptr, ptr %3, align 8
  call void (i32, i32, ptr, ...) @pg_log_generic(i32 noundef 4, i32 noundef 0, ptr noundef @.str, ptr noundef %21)
  call void @exit(i32 noundef 1) #8
  unreachable

22:                                               ; No predecessors!
  br label %23

23:                                               ; preds = %22
  br label %24

24:                                               ; preds = %23, %15
  %25 = call ptr @pg_malloc(i64 noundef 409600)
  store ptr %25, ptr %6, align 8
  br label %26

26:                                               ; preds = %42, %24
  %27 = load i32, ptr %5, align 4
  %28 = load ptr, ptr %6, align 8
  %29 = call i64 @read(i32 noundef %27, ptr noundef %28, i64 noundef 409600)
  store i64 %29, ptr %8, align 8
  %30 = icmp sgt i64 %29, 0
  br i1 %30, label %31, label %43

31:                                               ; preds = %26
  %32 = load ptr, ptr %4, align 8
  %33 = load ptr, ptr %6, align 8
  %34 = load i64, ptr %8, align 8
  %35 = call i32 @pg_checksum_update(ptr noundef %32, ptr noundef %33, i64 noundef %34)
  %36 = icmp slt i32 %35, 0
  br i1 %36, label %37, label %42

37:                                               ; preds = %31
  br label %38

38:                                               ; preds = %37
  %39 = load ptr, ptr %3, align 8
  call void (i32, i32, ptr, ...) @pg_log_generic(i32 noundef 4, i32 noundef 0, ptr noundef @.str.11, ptr noundef %39)
  call void @exit(i32 noundef 1) #8
  unreachable

40:                                               ; No predecessors!
  br label %41

41:                                               ; preds = %40
  br label %42

42:                                               ; preds = %41, %31
  br label %26, !llvm.loop !9

43:                                               ; preds = %26
  %44 = load i64, ptr %8, align 8
  %45 = icmp slt i64 %44, 0
  br i1 %45, label %46, label %51

46:                                               ; preds = %43
  br label %47

47:                                               ; preds = %46
  %48 = load ptr, ptr %3, align 8
  call void (i32, i32, ptr, ...) @pg_log_generic(i32 noundef 4, i32 noundef 0, ptr noundef @.str.15, ptr noundef %48)
  call void @exit(i32 noundef 1) #8
  unreachable

49:                                               ; No predecessors!
  br label %50

50:                                               ; preds = %49
  br label %51

51:                                               ; preds = %50, %43
  %52 = load ptr, ptr %6, align 8
  call void @pg_free(ptr noundef %52)
  %53 = load i32, ptr %5, align 4
  %54 = call i32 @close(i32 noundef %53)
  store i32 0, ptr %9, align 4
  br label %55

55:                                               ; preds = %51, %14
  call void @llvm.lifetime.end.p0(i64 8, ptr %8) #7
  call void @llvm.lifetime.end.p0(i64 4, ptr %7) #7
  call void @llvm.lifetime.end.p0(i64 8, ptr %6) #7
  call void @llvm.lifetime.end.p0(i64 4, ptr %5) #7
  %56 = load i32, ptr %9, align 4
  switch i32 %56, label %58 [
    i32 0, label %57
    i32 1, label %57
  ]

57:                                               ; preds = %55, %55
  ret void

58:                                               ; preds = %55
  unreachable
}