; Function Attrs: nounwind uwtable
define internal fastcc void @checksum_file(ptr noundef %0, ptr noundef %1) unnamed_addr #0 {
  %3 = load i32, ptr %1, align 8
  %4 = icmp eq i32 %3, 0
  br i1 %4, label %23, label %5

5:                                                ; preds = %2
  %6 = tail call i32 (ptr, i32, ...) @open(ptr noundef %0, i32 noundef 0, i32 noundef 0) #7
  %7 = icmp slt i32 %6, 0
  br i1 %7, label %8, label %9

8:                                                ; preds = %5
  tail call void (i32, i32, ptr, ...) @pg_log_generic(i32 noundef 4, i32 noundef 0, ptr noundef nonnull @.str, ptr noundef %0) #7
  tail call void @exit(i32 noundef 1) #8
  unreachable

9:                                                ; preds = %5
  %10 = tail call ptr @pg_malloc(i64 noundef 409600) #7
  br label %11

11:                                               ; preds = %14, %9
  %12 = tail call i64 @read(i32 noundef %6, ptr noundef %10, i64 noundef 409600) #7
  %13 = icmp sgt i64 %12, 0
  br i1 %13, label %14, label %18

14:                                               ; preds = %11
  %15 = tail call i32 @pg_checksum_update(ptr noundef nonnull %1, ptr noundef %10, i64 noundef %12) #7
  %16 = icmp slt i32 %15, 0
  br i1 %16, label %17, label %11, !llvm.loop !9

17:                                               ; preds = %14
  tail call void (i32, i32, ptr, ...) @pg_log_generic(i32 noundef 4, i32 noundef 0, ptr noundef nonnull @.str.11, ptr noundef %0) #7
  tail call void @exit(i32 noundef 1) #8
  unreachable

18:                                               ; preds = %11
  %19 = icmp slt i64 %12, 0
  br i1 %19, label %20, label %21

20:                                               ; preds = %18
  tail call void (i32, i32, ptr, ...) @pg_log_generic(i32 noundef 4, i32 noundef 0, ptr noundef nonnull @.str.15, ptr noundef %0) #7
  tail call void @exit(i32 noundef 1) #8
  unreachable

21:                                               ; preds = %18
  tail call void @pg_free(ptr noundef %10) #7
  %22 = tail call i32 @close(i32 noundef %6) #7
  br label %23

23:                                               ; preds = %2, %21
  ret void
}